; ModuleID = '64/1878.c'
source_filename = "64/1878.c"
target datalayout = "e-m:e-p270:32:32-p271:32:32-p272:64:64-i64:64-f80:128-n8:16:32:64-S128"
target triple = "x86_64-pc-linux-gnu"

@.str = private unnamed_addr constant [3 x i8] c"%d\00", align 1
@.str.1 = private unnamed_addr constant [7 x i8] c"%d%d%d\00", align 1
@.str.2 = private unnamed_addr constant [29 x i8] c"(%d,%d,%d)-(%d,%d,%d)=%.2lf\0A\00", align 1

; Function Attrs: noinline nounwind uwtable
define dso_local i32 @main() #0 {
  %1 = alloca i32, align 4
  %2 = alloca i32, align 4
  %3 = alloca i32, align 4
  %4 = alloca i32, align 4
  %5 = alloca i32, align 4
  %6 = alloca i32, align 4
  %7 = alloca i32, align 4
  %8 = alloca [11 x i32], align 16
  %9 = alloca [11 x i32], align 16
  %10 = alloca [11 x i32], align 16
  %11 = alloca [100 x i32], align 16
  %12 = alloca [100 x i32], align 16
  %13 = alloca [10000 x double], align 16
  store i32 0, i32* %1, align 4
  %14 = call i32 (i8*, ...) @__isoc99_scanf(i8* getelementptr inbounds ([3 x i8], [3 x i8]* @.str, i64 0, i64 0), i32* %2)
  store i32 0, i32* %5, align 4
  store i32 0, i32* %3, align 4
  br label %15

15:                                               ; preds = %30, %0
  %16 = load i32, i32* %3, align 4
  %17 = load i32, i32* %2, align 4
  %18 = icmp slt i32 %16, %17
  br i1 %18, label %19, label %33

19:                                               ; preds = %15
  %20 = load i32, i32* %3, align 4
  %21 = sext i32 %20 to i64
  %22 = getelementptr inbounds [11 x i32], [11 x i32]* %8, i64 0, i64 %21
  %23 = load i32, i32* %3, align 4
  %24 = sext i32 %23 to i64
  %25 = getelementptr inbounds [11 x i32], [11 x i32]* %9, i64 0, i64 %24
  %26 = load i32, i32* %3, align 4
  %27 = sext i32 %26 to i64
  %28 = getelementptr inbounds [11 x i32], [11 x i32]* %10, i64 0, i64 %27
  %29 = call i32 (i8*, ...) @__isoc99_scanf(i8* getelementptr inbounds ([7 x i8], [7 x i8]* @.str.1, i64 0, i64 0), i32* %22, i32* %25, i32* %28)
  br label %30

30:                                               ; preds = %19
  %31 = load i32, i32* %3, align 4
  %32 = add nsw i32 %31, 1
  store i32 %32, i32* %3, align 4
  br label %15

33:                                               ; preds = %15
  store i32 1, i32* %5, align 4
  %34 = getelementptr inbounds [10000 x double], [10000 x double]* %13, i64 0, i64 0
  store double 0.000000e+00, double* %34, align 16
  store i32 0, i32* %4, align 4
  br label %35

35:                                               ; preds = %126, %33
  %36 = load i32, i32* %4, align 4
  %37 = load i32, i32* %2, align 4
  %38 = icmp slt i32 %36, %37
  br i1 %38, label %39, label %129

39:                                               ; preds = %35
  %40 = load i32, i32* %4, align 4
  %41 = add nsw i32 %40, 1
  store i32 %41, i32* %3, align 4
  br label %42

42:                                               ; preds = %121, %39
  %43 = load i32, i32* %3, align 4
  %44 = load i32, i32* %2, align 4
  %45 = icmp slt i32 %43, %44
  br i1 %45, label %46, label %124

46:                                               ; preds = %42
  %47 = load i32, i32* %4, align 4
  %48 = sext i32 %47 to i64
  %49 = getelementptr inbounds [11 x i32], [11 x i32]* %8, i64 0, i64 %48
  %50 = load i32, i32* %49, align 4
  %51 = load i32, i32* %3, align 4
  %52 = sext i32 %51 to i64
  %53 = getelementptr inbounds [11 x i32], [11 x i32]* %8, i64 0, i64 %52
  %54 = load i32, i32* %53, align 4
  %55 = sub nsw i32 %50, %54
  %56 = load i32, i32* %4, align 4
  %57 = sext i32 %56 to i64
  %58 = getelementptr inbounds [11 x i32], [11 x i32]* %8, i64 0, i64 %57
  %59 = load i32, i32* %58, align 4
  %60 = load i32, i32* %3, align 4
  %61 = sext i32 %60 to i64
  %62 = getelementptr inbounds [11 x i32], [11 x i32]* %8, i64 0, i64 %61
  %63 = load i32, i32* %62, align 4
  %64 = sub nsw i32 %59, %63
  %65 = mul nsw i32 %55, %64
  %66 = load i32, i32* %4, align 4
  %67 = sext i32 %66 to i64
  %68 = getelementptr inbounds [11 x i32], [11 x i32]* %9, i64 0, i64 %67
  %69 = load i32, i32* %68, align 4
  %70 = load i32, i32* %3, align 4
  %71 = sext i32 %70 to i64
  %72 = getelementptr inbounds [11 x i32], [11 x i32]* %9, i64 0, i64 %71
  %73 = load i32, i32* %72, align 4
  %74 = sub nsw i32 %69, %73
  %75 = load i32, i32* %4, align 4
  %76 = sext i32 %75 to i64
  %77 = getelementptr inbounds [11 x i32], [11 x i32]* %9, i64 0, i64 %76
  %78 = load i32, i32* %77, align 4
  %79 = load i32, i32* %3, align 4
  %80 = sext i32 %79 to i64
  %81 = getelementptr inbounds [11 x i32], [11 x i32]* %9, i64 0, i64 %80
  %82 = load i32, i32* %81, align 4
  %83 = sub nsw i32 %78, %82
  %84 = mul nsw i32 %74, %83
  %85 = add nsw i32 %65, %84
  %86 = load i32, i32* %4, align 4
  %87 = sext i32 %86 to i64
  %88 = getelementptr inbounds [11 x i32], [11 x i32]* %10, i64 0, i64 %87
  %89 = load i32, i32* %88, align 4
  %90 = load i32, i32* %3, align 4
  %91 = sext i32 %90 to i64
  %92 = getelementptr inbounds [11 x i32], [11 x i32]* %10, i64 0, i64 %91
  %93 = load i32, i32* %92, align 4
  %94 = sub nsw i32 %89, %93
  %95 = load i32, i32* %4, align 4
  %96 = sext i32 %95 to i64
  %97 = getelementptr inbounds [11 x i32], [11 x i32]* %10, i64 0, i64 %96
  %98 = load i32, i32* %97, align 4
  %99 = load i32, i32* %3, align 4
  %100 = sext i32 %99 to i64
  %101 = getelementptr inbounds [11 x i32], [11 x i32]* %10, i64 0, i64 %100
  %102 = load i32, i32* %101, align 4
  %103 = sub nsw i32 %98, %102
  %104 = mul nsw i32 %94, %103
  %105 = add nsw i32 %85, %104
  %106 = sitofp i32 %105 to double
  %107 = call double @sqrt(double %106) #3
  %108 = load i32, i32* %5, align 4
  %109 = sext i32 %108 to i64
  %110 = getelementptr inbounds [10000 x double], [10000 x double]* %13, i64 0, i64 %109
  store double %107, double* %110, align 8
  %111 = load i32, i32* %3, align 4
  %112 = load i32, i32* %5, align 4
  %113 = sext i32 %112 to i64
  %114 = getelementptr inbounds [100 x i32], [100 x i32]* %12, i64 0, i64 %113
  store i32 %111, i32* %114, align 4
  %115 = load i32, i32* %4, align 4
  %116 = load i32, i32* %5, align 4
  %117 = sext i32 %116 to i64
  %118 = getelementptr inbounds [100 x i32], [100 x i32]* %11, i64 0, i64 %117
  store i32 %115, i32* %118, align 4
  %119 = load i32, i32* %5, align 4
  %120 = add nsw i32 %119, 1
  store i32 %120, i32* %5, align 4
  br label %121

121:                                              ; preds = %46
  %122 = load i32, i32* %3, align 4
  %123 = add nsw i32 %122, 1
  store i32 %123, i32* %3, align 4
  br label %42

124:                                              ; preds = %42
  %125 = load i32, i32* %5, align 4
  store i32 %125, i32* %7, align 4
  br label %126

126:                                              ; preds = %124
  %127 = load i32, i32* %4, align 4
  %128 = add nsw i32 %127, 1
  store i32 %128, i32* %4, align 4
  br label %35

129:                                              ; preds = %35
  store i32 0, i32* %6, align 4
  br label %130

130:                                              ; preds = %229, %129
  %131 = load i32, i32* %6, align 4
  %132 = load i32, i32* %2, align 4
  %133 = load i32, i32* %2, align 4
  %134 = mul nsw i32 %132, %133
  %135 = icmp slt i32 %131, %134
  br i1 %135, label %136, label %232

136:                                              ; preds = %130
  store i32 0, i32* %5, align 4
  br label %137

137:                                              ; preds = %225, %136
  %138 = load i32, i32* %5, align 4
  %139 = load i32, i32* %7, align 4
  %140 = icmp sle i32 %138, %139
  br i1 %140, label %141, label %228

141:                                              ; preds = %137
  %142 = load i32, i32* %5, align 4
  %143 = sext i32 %142 to i64
  %144 = getelementptr inbounds [10000 x double], [10000 x double]* %13, i64 0, i64 %143
  %145 = load double, double* %144, align 8
  %146 = fcmp une double %145, 0.000000e+00
  br i1 %146, label %147, label %224

147:                                              ; preds = %141
  store i32 0, i32* %3, align 4
  br label %148

148:                                              ; preds = %220, %147
  %149 = load i32, i32* %3, align 4
  %150 = load i32, i32* %7, align 4
  %151 = icmp sle i32 %149, %150
  br i1 %151, label %152, label %223

152:                                              ; preds = %148
  %153 = load i32, i32* %5, align 4
  %154 = sext i32 %153 to i64
  %155 = getelementptr inbounds [10000 x double], [10000 x double]* %13, i64 0, i64 %154
  %156 = load double, double* %155, align 8
  %157 = load i32, i32* %3, align 4
  %158 = sext i32 %157 to i64
  %159 = getelementptr inbounds [10000 x double], [10000 x double]* %13, i64 0, i64 %158
  %160 = load double, double* %159, align 8
  %161 = fcmp olt double %156, %160
  br i1 %161, label %162, label %163

162:                                              ; preds = %152
  br label %223

163:                                              ; preds = %152
  %164 = load i32, i32* %3, align 4
  %165 = load i32, i32* %7, align 4
  %166 = sub nsw i32 %165, 1
  %167 = icmp eq i32 %164, %166
  br i1 %167, label %168, label %219

168:                                              ; preds = %163
  %169 = load i32, i32* %5, align 4
  %170 = sext i32 %169 to i64
  %171 = getelementptr inbounds [100 x i32], [100 x i32]* %11, i64 0, i64 %170
  %172 = load i32, i32* %171, align 4
  %173 = sext i32 %172 to i64
  %174 = getelementptr inbounds [11 x i32], [11 x i32]* %8, i64 0, i64 %173
  %175 = load i32, i32* %174, align 4
  %176 = load i32, i32* %5, align 4
  %177 = sext i32 %176 to i64
  %178 = getelementptr inbounds [100 x i32], [100 x i32]* %11, i64 0, i64 %177
  %179 = load i32, i32* %178, align 4
  %180 = sext i32 %179 to i64
  %181 = getelementptr inbounds [11 x i32], [11 x i32]* %9, i64 0, i64 %180
  %182 = load i32, i32* %181, align 4
  %183 = load i32, i32* %5, align 4
  %184 = sext i32 %183 to i64
  %185 = getelementptr inbounds [100 x i32], [100 x i32]* %11, i64 0, i64 %184
  %186 = load i32, i32* %185, align 4
  %187 = sext i32 %186 to i64
  %188 = getelementptr inbounds [11 x i32], [11 x i32]* %10, i64 0, i64 %187
  %189 = load i32, i32* %188, align 4
  %190 = load i32, i32* %5, align 4
  %191 = sext i32 %190 to i64
  %192 = getelementptr inbounds [100 x i32], [100 x i32]* %12, i64 0, i64 %191
  %193 = load i32, i32* %192, align 4
  %194 = sext i32 %193 to i64
  %195 = getelementptr inbounds [11 x i32], [11 x i32]* %8, i64 0, i64 %194
  %196 = load i32, i32* %195, align 4
  %197 = load i32, i32* %5, align 4
  %198 = sext i32 %197 to i64
  %199 = getelementptr inbounds [100 x i32], [100 x i32]* %12, i64 0, i64 %198
  %200 = load i32, i32* %199, align 4
  %201 = sext i32 %200 to i64
  %202 = getelementptr inbounds [11 x i32], [11 x i32]* %9, i64 0, i64 %201
  %203 = load i32, i32* %202, align 4
  %204 = load i32, i32* %5, align 4
  %205 = sext i32 %204 to i64
  %206 = getelementptr inbounds [100 x i32], [100 x i32]* %12, i64 0, i64 %205
  %207 = load i32, i32* %206, align 4
  %208 = sext i32 %207 to i64
  %209 = getelementptr inbounds [11 x i32], [11 x i32]* %10, i64 0, i64 %208
  %210 = load i32, i32* %209, align 4
  %211 = load i32, i32* %5, align 4
  %212 = sext i32 %211 to i64
  %213 = getelementptr inbounds [10000 x double], [10000 x double]* %13, i64 0, i64 %212
  %214 = load double, double* %213, align 8
  %215 = call i32 (i8*, ...) @printf(i8* getelementptr inbounds ([29 x i8], [29 x i8]* @.str.2, i64 0, i64 0), i32 %175, i32 %182, i32 %189, i32 %196, i32 %203, i32 %210, double %214)
  %216 = load i32, i32* %5, align 4
  %217 = sext i32 %216 to i64
  %218 = getelementptr inbounds [10000 x double], [10000 x double]* %13, i64 0, i64 %217
  store double 0.000000e+00, double* %218, align 8
  store i32 0, i32* %5, align 4
  store i32 0, i32* %3, align 4
  br label %223

219:                                              ; preds = %163
  br label %220

220:                                              ; preds = %219
  %221 = load i32, i32* %3, align 4
  %222 = add nsw i32 %221, 1
  store i32 %222, i32* %3, align 4
  br label %148

223:                                              ; preds = %168, %162, %148
  br label %224

224:                                              ; preds = %223, %141
  br label %225

225:                                              ; preds = %224
  %226 = load i32, i32* %5, align 4
  %227 = add nsw i32 %226, 1
  store i32 %227, i32* %5, align 4
  br label %137

228:                                              ; preds = %137
  br label %229

229:                                              ; preds = %228
  %230 = load i32, i32* %6, align 4
  %231 = add nsw i32 %230, 1
  store i32 %231, i32* %6, align 4
  br label %130

232:                                              ; preds = %130
  ret i32 0
}

declare dso_local i32 @__isoc99_scanf(i8*, ...) #1

; Function Attrs: nounwind
declare dso_local double @sqrt(double) #2

declare dso_local i32 @printf(i8*, ...) #1


!llvm.module.flags = !{!0}
!llvm.ident = !{!1}

!0 = !{i32 1, !"wchar_size", i32 4}
!1 = !{!"clang version 10.0.0-4ubuntu1 "}
